target datalayout = "e-m:e-p270:32:32-p271:32:32-p272:64:64-i64:64-i128:128-f80:128-n8:16:32:64-S128"
target triple = "x86_64-pc-linux-gnu"

%union.pthread_mutex_t = type { %struct.__pthread_mutex_s }
%struct.__pthread_mutex_s = type { i32, i32, i32, i32, i32, i16, i16, %struct.__pthread_internal_list }
%struct.__pthread_internal_list = type { ptr, ptr }
%union.pthread_cond_t = type { %struct.__pthread_cond_s }
%struct.__pthread_cond_s = type { %union.__atomic_wide_counter, %union.__atomic_wide_counter, [2 x i32], [2 x i32], i32, i32, [2 x i32] }
%union.__atomic_wide_counter = type { i64 }

@lru_crawler_lock = internal global %union.pthread_mutex_t zeroinitializer, align 8
@do_run_lru_crawler_thread = internal global i32 0, align 4
@lru_crawler_cond = internal global %union.pthread_cond_t zeroinitializer, align 8
@item_crawler_tid = internal global i64 0, align 8
@stderr = external global ptr, align 8
@.str = private unnamed_addr constant [39 x i8] c"Failed to stop LRU crawler thread: %s\0A\00", align 1

; Function Attrs: nounwind uwtable
define dso_local i32 @stop_item_crawler_thread(i1 noundef zeroext %0) #0 {
  %2 = alloca i32, align 4
  %3 = alloca i8, align 1
  %4 = alloca i32, align 4
  %5 = alloca i32, align 4
  %6 = zext i1 %0 to i8
  store i8 %6, ptr %3, align 1, !tbaa !30
  call void @llvm.lifetime.start.p0(i64 4, ptr %4) #11
  %7 = call i32 @pthread_mutex_lock(ptr noundef @lru_crawler_lock) #11
  %8 = load volatile i32, ptr @do_run_lru_crawler_thread, align 4, !tbaa !20
  %9 = icmp eq i32 %8, 0
  br i1 %9, label %10, label %12

10:                                               ; preds = %1
  %11 = call i32 @pthread_mutex_unlock(ptr noundef @lru_crawler_lock) #11
  store i32 0, ptr %2, align 4
  store i32 1, ptr %5, align 4
  br label %27

12:                                               ; preds = %1
  store volatile i32 0, ptr @do_run_lru_crawler_thread, align 4, !tbaa !20
  %13 = call i32 @pthread_cond_signal(ptr noundef @lru_crawler_cond) #11
  %14 = call i32 @pthread_mutex_unlock(ptr noundef @lru_crawler_lock) #11
  %15 = load i8, ptr %3, align 1, !tbaa !30, !range !33, !noundef !34
  %16 = trunc i8 %15 to i1
  br i1 %16, label %17, label %26

17:                                               ; preds = %12
  %18 = load i64, ptr @item_crawler_tid, align 8, !tbaa !51
  %19 = call i32 @pthread_join(i64 noundef %18, ptr noundef null)
  store i32 %19, ptr %4, align 4, !tbaa !20
  %20 = icmp ne i32 %19, 0
  br i1 %20, label %21, label %26

21:                                               ; preds = %17
  %22 = load ptr, ptr @stderr, align 8, !tbaa !43
  %23 = load i32, ptr %4, align 4, !tbaa !20
  %24 = call ptr @strerror(i32 noundef %23) #11
  %25 = call i32 (ptr, ptr, ...) @fprintf(ptr noundef %22, ptr noundef @.str, ptr noundef %24) #11
  store i32 -1, ptr %2, align 4
  store i32 1, ptr %5, align 4
  br label %27

26:                                               ; preds = %17, %12
  store i32 0, ptr %2, align 4
  store i32 1, ptr %5, align 4
  br label %27

27:                                               ; preds = %26, %21, %10
  call void @llvm.lifetime.end.p0(i64 4, ptr %4) #11
  %28 = load i32, ptr %2, align 4
  ret i32 %28
}