; Function Attrs: nounwind uwtable
define dso_local range(i32 -1, 1) i32 @stop_item_crawler_thread(i1 noundef zeroext %0) local_unnamed_addr #0 {
  %2 = tail call i32 @pthread_mutex_lock(ptr noundef nonnull @lru_crawler_lock) #18
  %3 = load volatile i32, ptr @do_run_lru_crawler_thread, align 4, !tbaa !10
  %4 = icmp eq i32 %3, 0
  br i1 %4, label %5, label %7

5:                                                ; preds = %1
  %6 = tail call i32 @pthread_mutex_unlock(ptr noundef nonnull @lru_crawler_lock) #18
  br label %17

7:                                                ; preds = %1
  store volatile i32 0, ptr @do_run_lru_crawler_thread, align 4, !tbaa !10
  %8 = tail call i32 @pthread_cond_signal(ptr noundef nonnull @lru_crawler_cond) #18
  %9 = tail call i32 @pthread_mutex_unlock(ptr noundef nonnull @lru_crawler_lock) #18
  br i1 %0, label %10, label %17

10:                                               ; preds = %7
  %11 = load i64, ptr @item_crawler_tid, align 8, !tbaa !42
  %12 = tail call i32 @pthread_join(i64 noundef %11, ptr noundef null) #18
  %.not = icmp eq i32 %12, 0
  br i1 %.not, label %17, label %13

13:                                               ; preds = %10
  %14 = load ptr, ptr @stderr, align 8, !tbaa !34
  %15 = tail call ptr @strerror(i32 noundef %12) #18
  %16 = tail call i32 (ptr, ptr, ...) @fprintf(ptr noundef %14, ptr noundef nonnull @.str, ptr noundef %15) #19
  br label %17

17:                                               ; preds = %7, %10, %13, %5
  %.0 = phi i32 [ 0, %5 ], [ -1, %13 ], [ 0, %10 ], [ 0, %7 ]
  ret i32 %.0
}